   1              		.cpu arm7tdmi
   2              		.eabi_attribute 20, 1
   3              		.eabi_attribute 21, 1
   4              		.eabi_attribute 23, 3
   5              		.eabi_attribute 24, 1
   6              		.eabi_attribute 25, 1
   7              		.eabi_attribute 26, 1
   8              		.eabi_attribute 30, 2
   9              		.eabi_attribute 34, 0
  10              		.eabi_attribute 18, 4
  11              		.file	"ser_user.c"
  12              		.text
  13              	.Ltext0:
  14              		.cfi_sections	.debug_frame
  15              		.align	2
  16              		.global	SER_UserInit
  17              		.arch armv4t
  18              		.syntax unified
  19              		.arm
  20              		.fpu softvfp
  22              	SER_UserInit:
  23              	.LFB0:
  24              		.file 1 "./src/ser_user.c"
   1:./src/ser_user.c **** 
   2:./src/ser_user.c **** 
   3:./src/ser_user.c **** #include "datatypes.h"
   4:./src/ser_user.c **** #include "serial.h"
   5:./src/ser_user.c **** #include "ser_user.h"
   6:./src/ser_user.c **** #include "hardware_user.h"
   7:./src/ser_user.c **** 
   8:./src/ser_user.c **** // serial baudrate
   9:./src/ser_user.c **** #define	SER_BAUD		115200
  10:./src/ser_user.c **** 
  11:./src/ser_user.c **** // TX Fifo (soft-fifo read by TX complete interrupt)
  12:./src/ser_user.c **** static u8_t  TxFifo[SER_TX_FIFO_SIZE];
  13:./src/ser_user.c **** 
  14:./src/ser_user.c **** // RX Fifo (soft-fifo write by RX complete interrupt)
  15:./src/ser_user.c **** static u8_t  RxFifo[SER_RX_FIFO_SIZE];
  16:./src/ser_user.c **** 
  17:./src/ser_user.c **** 
  18:./src/ser_user.c **** 
  19:./src/ser_user.c **** // Init the serial interface
  20:./src/ser_user.c **** void  SER_UserInit ( void)
  21:./src/ser_user.c **** {
  25              		.loc 1 21 1 view -0
  26              		.cfi_startproc
  27              		@ Function supports interworking.
  28              		@ args = 0, pretend = 0, frame = 24
  29              		@ frame_needed = 0, uses_anonymous_args = 0
  22:./src/ser_user.c **** 
  23:./src/ser_user.c **** 	SERInit_t  setup;
  30              		.loc 1 23 2 view .LVU1
  24:./src/ser_user.c **** 	
  25:./src/ser_user.c **** 	
  26:./src/ser_user.c **** 	setup.prescaler = ( HW_CPU_CLOCK_HZ + 8 * SER_BAUD) / ( 16 * SER_BAUD);
  31              		.loc 1 26 2 view .LVU2
  32              		.loc 1 26 18 is_stmt 0 view .LVU3
  33 0000 2120A0E3 		mov	r2, #33
  21:./src/ser_user.c **** 
  34              		.loc 1 21 1 view .LVU4
  35 0004 10402DE9 		push	{r4, lr}
  36              	.LCFI0:
  37              		.cfi_def_cfa_offset 8
  38              		.cfi_offset 4, -8
  39              		.cfi_offset 14, -4
  27:./src/ser_user.c **** 	setup.databits = 8;
  28:./src/ser_user.c **** 	setup.stopbits = 1;
  29:./src/ser_user.c **** 	setup.parity = SER_PARITY_NONE;
  30:./src/ser_user.c **** 	
  31:./src/ser_user.c **** 	setup.pTxFifo = &TxFifo;
  40              		.loc 1 31 16 view .LVU5
  41 0008 38309FE5 		ldr	r3, .L4
  21:./src/ser_user.c **** 
  42              		.loc 1 21 1 view .LVU6
  43 000c 18D04DE2 		sub	sp, sp, #24
  44              	.LCFI1:
  45              		.cfi_def_cfa_offset 32
  27:./src/ser_user.c **** 	setup.databits = 8;
  46              		.loc 1 27 17 view .LVU7
  47 0010 34E09FE5 		ldr	lr, .L4+4
  32:./src/ser_user.c **** 	setup.pRxFifo = &RxFifo;
  33:./src/ser_user.c **** 	
  34:./src/ser_user.c **** 	setup.TxFifoSize = SER_TX_FIFO_SIZE;
  35:./src/ser_user.c **** 	setup.RxFifoSize = SER_RX_FIFO_SIZE;
  48              		.loc 1 35 19 view .LVU8
  49 0014 34C09FE5 		ldr	ip, .L4+8
  32:./src/ser_user.c **** 	setup.pRxFifo = &RxFifo;
  50              		.loc 1 32 16 view .LVU9
  51 0018 284083E2 		add	r4, r3, #40
  36:./src/ser_user.c **** 	
  37:./src/ser_user.c **** 	setup.ISRnum = 5;		// VIC channels 0 to 4 used for CAN
  38:./src/ser_user.c **** 	
  39:./src/ser_user.c **** 	SER_Initialize ( SER_PORT1, &setup);
  52              		.loc 1 39 2 view .LVU10
  53 001c 04108DE2 		add	r1, sp, #4
  54 0020 0000A0E3 		mov	r0, #0
  31:./src/ser_user.c **** 	setup.pRxFifo = &RxFifo;
  55              		.loc 1 31 16 view .LVU11
  56 0024 08308DE5 		str	r3, [sp, #8]
  32:./src/ser_user.c **** 	setup.pRxFifo = &RxFifo;
  57              		.loc 1 32 16 view .LVU12
  58 0028 0C408DE5 		str	r4, [sp, #12]
  27:./src/ser_user.c **** 	setup.stopbits = 1;
  59              		.loc 1 27 17 view .LVU13
  60 002c 10E08DE5 		str	lr, [sp, #16]
  35:./src/ser_user.c **** 	
  61              		.loc 1 35 19 view .LVU14
  62 0030 B4C1CDE1 		strh	ip, [sp, #20]	@ movhi
  26:./src/ser_user.c **** 	setup.databits = 8;
  63              		.loc 1 26 18 view .LVU15
  64 0034 04208DE5 		str	r2, [sp, #4]
  27:./src/ser_user.c **** 	setup.stopbits = 1;
  65              		.loc 1 27 2 is_stmt 1 view .LVU16
  28:./src/ser_user.c **** 	setup.parity = SER_PARITY_NONE;
  66              		.loc 1 28 2 view .LVU17
  29:./src/ser_user.c **** 	
  67              		.loc 1 29 2 view .LVU18
  31:./src/ser_user.c **** 	setup.pRxFifo = &RxFifo;
  68              		.loc 1 31 2 view .LVU19
  32:./src/ser_user.c **** 	
  69              		.loc 1 32 2 view .LVU20
  34:./src/ser_user.c **** 	setup.RxFifoSize = SER_RX_FIFO_SIZE;
  70              		.loc 1 34 2 view .LVU21
  35:./src/ser_user.c **** 	
  71              		.loc 1 35 2 view .LVU22
  37:./src/ser_user.c **** 	
  72              		.loc 1 37 2 view .LVU23
  73              		.loc 1 39 2 view .LVU24
  74 0038 FEFFFFEB 		bl	SER_Initialize
  75              	.LVL0:
  40:./src/ser_user.c **** 	
  41:./src/ser_user.c **** }
  76              		.loc 1 41 1 is_stmt 0 view .LVU25
  77 003c 18D08DE2 		add	sp, sp, #24
  78              	.LCFI2:
  79              		.cfi_def_cfa_offset 8
  80              		@ sp needed
  81 0040 1040BDE8 		pop	{r4, lr}
  82              	.LCFI3:
  83              		.cfi_restore 14
  84              		.cfi_restore 4
  85              		.cfi_def_cfa_offset 0
  86 0044 1EFF2FE1 		bx	lr
  87              	.L5:
  88              		.align	2
  89              	.L4:
  90 0048 00000000 		.word	.LANCHOR0
  91 004c 08010028 		.word	671088904
  92 0050 3C050000 		.word	1340
  93              		.cfi_endproc
  94              	.LFE0:
  96              		.bss
  97              		.align	2
  98              		.set	.LANCHOR0,. + 0
 101              	TxFifo:
 102 0000 00000000 		.space	40
 102      00000000 
 102      00000000 
 102      00000000 
 102      00000000 
 105              	RxFifo:
 106 0028 00000000 		.space	60
 106      00000000 
 106      00000000 
 106      00000000 
 106      00000000 
 107              		.text
 108              	.Letext0:
 109              		.file 2 "./inc/datatypes.h"
 110              		.file 3 "./inc/serial.h"